target datalayout = "e-m:e-p270:32:32-p271:32:32-p272:64:64-i64:64-i128:128-f80:128-n8:16:32:64-S128"
target triple = "x86_64-pc-linux-gnu"

; Function Attrs: mustprogress uwtable
define void @_ZNK6icu_779NFRuleSet6formatEdRNS_13UnicodeStringEiiR10UErrorCode(ptr noundef nonnull align 8 dereferenceable(163) %0, double noundef %1, ptr noundef nonnull align 8 dereferenceable(64) %2, i32 noundef %3, i32 noundef %4, ptr noundef nonnull align 4 dereferenceable(4) %5) #0 align 2 {
  %7 = alloca ptr, align 8
  %8 = alloca double, align 8
  %9 = alloca ptr, align 8
  %10 = alloca i32, align 4
  %11 = alloca i32, align 4
  %12 = alloca ptr, align 8
  %13 = alloca ptr, align 8
  store ptr %0, ptr %7, align 8, !tbaa !3
  store double %1, ptr %8, align 8, !tbaa !75
  store ptr %2, ptr %9, align 8, !tbaa !10
  store i32 %3, ptr %10, align 4, !tbaa !12
  store i32 %4, ptr %11, align 4, !tbaa !12
  store ptr %5, ptr %12, align 8, !tbaa !14
  %14 = load ptr, ptr %7, align 8
  %15 = load i32, ptr %11, align 4, !tbaa !12
  %16 = icmp sge i32 %15, 64
  br i1 %16, label %17, label %19

17:                                               ; preds = %6
  %18 = load ptr, ptr %12, align 8, !tbaa !14
  store i32 27, ptr %18, align 4, !tbaa !30
  br label %33

19:                                               ; preds = %6
  call void @llvm.lifetime.start.p0(i64 8, ptr %13) #12
  %20 = load double, ptr %8, align 8, !tbaa !75
  %21 = call noundef ptr @_ZNK6icu_779NFRuleSet14findDoubleRuleEd(ptr noundef nonnull align 8 dereferenceable(163) %14, double noundef %20)
  store ptr %21, ptr %13, align 8, !tbaa !26
  %22 = load ptr, ptr %13, align 8, !tbaa !26
  %23 = icmp ne ptr %22, null
  br i1 %23, label %24, label %32

24:                                               ; preds = %19
  %25 = load ptr, ptr %13, align 8, !tbaa !26
  %26 = load double, ptr %8, align 8, !tbaa !75
  %27 = load ptr, ptr %9, align 8, !tbaa !10
  %28 = load i32, ptr %10, align 4, !tbaa !12
  %29 = load i32, ptr %11, align 4, !tbaa !12
  %30 = add nsw i32 %29, 1
  store i32 %30, ptr %11, align 4, !tbaa !12
  %31 = load ptr, ptr %12, align 8, !tbaa !14
  call void @_ZNK6icu_776NFRule8doFormatEdRNS_13UnicodeStringEiiR10UErrorCode(ptr noundef nonnull align 8 dereferenceable(112) %25, double noundef %26, ptr noundef nonnull align 8 dereferenceable(64) %27, i32 noundef %28, i32 noundef %30, ptr noundef nonnull align 4 dereferenceable(4) %31)
  br label %32

32:                                               ; preds = %24, %19
  call void @llvm.lifetime.end.p0(i64 8, ptr %13) #12
  br label %33

33:                                               ; preds = %32, %17
  ret void
}