; Function Attrs: mustprogress uwtable
define void @_ZNK6icu_779NFRuleSet6formatEdRNS_13UnicodeStringEiiR10UErrorCode(ptr noundef nonnull readonly align 8 captures(none) dereferenceable(163) %0, double noundef %1, ptr noundef nonnull align 8 dereferenceable(64) %2, i32 noundef %3, i32 noundef %4, ptr noundef nonnull align 4 dereferenceable(4) %5) local_unnamed_addr #0 align 2 {
  %7 = icmp sgt i32 %4, 63
  br i1 %7, label %8, label %9

8:                                                ; preds = %6
  store i32 27, ptr %5, align 4, !tbaa !27
  br label %13

9:                                                ; preds = %6
  %10 = tail call noundef ptr @_ZNK6icu_779NFRuleSet14findDoubleRuleEd(ptr noundef nonnull align 8 dereferenceable(163) %0, double noundef %1)
  %.not = icmp eq ptr %10, null
  br i1 %.not, label %13, label %11

11:                                               ; preds = %9
  %12 = add nsw i32 %4, 1
  tail call void @_ZNK6icu_776NFRule8doFormatEdRNS_13UnicodeStringEiiR10UErrorCode(ptr noundef nonnull align 8 dereferenceable(112) %10, double noundef %1, ptr noundef nonnull align 8 dereferenceable(64) %2, i32 noundef %3, i32 noundef %12, ptr noundef nonnull align 4 dereferenceable(4) %5)
  br label %13

13:                                               ; preds = %9, %11, %8
  ret void
}